Certificate:
    Data:
        Version: 3 (0x2)
        Serial Number:
            f4:de:12:5a:7d:7f:b6:e2
        Signature Algorithm: sha1WithRSAEncryption
        Issuer: C=NL, ST=Noord-Holland, O=SWI-Prolog foundation, OU=ClioPatria demo, CN=Jan Wielemaker/emailAddress=jan@swi-prolog.org
        Validity
            Not Before: Nov  3 20:52:05 2010 GMT
            Not After : Oct 31 20:52:05 2020 GMT
        Subject: C=NL, ST=Noord-Holland, L=Amsterdam, O=SWI-Prolog foundation, OU=ClioPatria demo, CN=Jan Wielemaker/emailAddress=jan@swi-prolog.org
        Subject Public Key Info:
            Public Key Algorithm: rsaEncryption
            RSA Public Key: (1024 bit)
                Modulus (1024 bit):
                    00:9c:cb:5c:eb:74:e6:18:41:db:19:c5:f8:eb:c4:
                    4b:b3:0f:63:05:3b:b0:22:84:13:15:68:6a:74:b0:
                    c5:f2:18:6e:79:4e:11:30:c6:7f:2d:42:3b:9d:08:
                    bf:34:1c:9b:65:65:90:18:c7:3d:17:98:10:87:c6:
                    c3:6f:ce:ed:18:29:ba:14:cb:38:15:26:12:b3:98:
                    48:a0:5e:18:33:b1:35:e2:09:5e:ba:1a:71:1a:3f:
                    06:4c:f5:81:b9:4c:b6:51:a0:7f:86:05:7b:59:68:
                    4a:dd:06:c1:13:05:e3:5d:e1:c4:02:05:b1:d0:f5:
                    ab:bf:00:a1:56:4b:17:15:4b
                Exponent: 65537 (0x10001)
        X509v3 extensions:
            X509v3 Basic Constraints: 
                CA:FALSE
            Netscape Comment: 
                OpenSSL Generated Certificate
            X509v3 Subject Key Identifier: 
                55:A2:B6:39:9A:B6:66:AB:7B:D9:18:0C:63:A1:75:5A:B4:D6:46:9B
            X509v3 Authority Key Identifier: 
                keyid:4C:D4:01:9C:AD:59:FF:71:E5:24:BE:33:70:DC:36:CB:0C:1C:DE:DC

    Signature Algorithm: sha1WithRSAEncryption
        50:62:49:fa:70:02:0e:a0:80:f2:bf:a4:ca:a5:56:61:b4:79:
        60:26:91:29:5f:6f:2c:52:28:7e:d7:8d:4d:f1:b7:d8:36:95:
        d4:d9:15:2b:3c:71:4a:66:fa:87:48:b1:e0:58:e3:3e:8a:8f:
        8e:26:24:6a:0b:85:51:ab:0b:29:93:f9:33:bc:11:ef:1e:cc:
        4a:64:3f:74:2f:a2:dd:9f:ad:43:2b:f3:80:81:79:46:2d:27:
        ed:2f:fb:37:18:4e:91:eb:37:3f:d7:7e:17:b4:e5:64:7e:28:
        e4:71:27:4e:10:50:e4:85:9e:2b:4f:1a:c0:b4:01:c0:84:f2:
        b9:c6
-----BEGIN CERTIFICATE-----
MIIDRTCCAq6gAwIBAgIJAPTeElp9f7biMA0GCSqGSIb3DQEBBQUAMIGbMQswCQYD
VQQGEwJOTDEWMBQGA1UECBMNTm9vcmQtSG9sbGFuZDEeMBwGA1UEChMVU1dJLVBy
b2xvZyBmb3VuZGF0aW9uMRgwFgYDVQQLEw9DbGlvUGF0cmlhIGRlbW8xFzAVBgNV
BAMTDkphbiBXaWVsZW1ha2VyMSEwHwYJKoZIhvcNAQkBFhJqYW5Ac3dpLXByb2xv
Zy5vcmcwHhcNMTAxMTAzMjA1MjA1WhcNMjAxMDMxMjA1MjA1WjCBrzELMAkGA1UE
BhMCTkwxFjAUBgNVBAgTDU5vb3JkLUhvbGxhbmQxEjAQBgNVBAcTCUFtc3RlcmRh
bTEeMBwGA1UEChMVU1dJLVByb2xvZyBmb3VuZGF0aW9uMRgwFgYDVQQLEw9DbGlv
UGF0cmlhIGRlbW8xFzAVBgNVBAMTDkphbiBXaWVsZW1ha2VyMSEwHwYJKoZIhvcN
AQkBFhJqYW5Ac3dpLXByb2xvZy5vcmcwgZ8wDQYJKoZIhvcNAQEBBQADgY0AMIGJ
AoGBAJzLXOt05hhB2xnF+OvES7MPYwU7sCKEExVoanSwxfIYbnlOETDGfy1CO50I
vzQcm2VlkBjHPReYEIfGw2/O7RgpuhTLOBUmErOYSKBeGDOxNeIJXroacRo/Bkz1
gblMtlGgf4YFe1loSt0GwRMF413hxAIFsdD1q78AoVZLFxVLAgMBAAGjezB5MAkG
A1UdEwQCMAAwLAYJYIZIAYb4QgENBB8WHU9wZW5TU0wgR2VuZXJhdGVkIENlcnRp
ZmljYXRlMB0GA1UdDgQWBBRVorY5mrZmq3vZGAxjoXVatNZGmzAfBgNVHSMEGDAW
gBRM1AGcrVn/ceUkvjNw3DbLDBze3DANBgkqhkiG9w0BAQUFAAOBgQBQYkn6cAIO
oIDyv6TKpVZhtHlgJpEpX28sUih+141N8bfYNpXU2RUrPHFKZvqHSLHgWOM+io+O
JiRqC4VRqwspk/kzvBHvHsxKZD90L6Ldn61DK/OAgXlGLSftL/s3GE6R6zc/134X
tOVkfijkcSdOEFDkhZ4rTxrAtAHAhPK5xg==
-----END CERTIFICATE-----
